#include <math.h>
#include <stdio.h>
#include <stdlib.h>
#include <string.h>

int main(){
     	int w,xingqi;
	  scanf("%d",&w);
      xingqi=(13%7-1+w)%7;
	  if(xingqi==5){
	     printf("1\n");
	  }
	  xingqi=(44%7+w-1)%7;
	  if(xingqi==5){
	     printf("2\n");
	  }xingqi=(72%7+w-1)%7;
	  if(xingqi==5){
	     printf("3\n");
	  }xingqi=(103%7+w-1)%7;
	  if(xingqi==5){
	     printf("4\n");
	  }xingqi=(133%7+w-1)%7;
	  if(xingqi==5){
	     printf("5\n");
	  }xingqi=(164%7+w-1)%7;
	  if(xingqi==5){
	     printf("6\n");
	  }xingqi=(194%7+w-1)%7;
	  if(xingqi==5){
	     printf("7\n");
	  }xingqi=(225%7+w-1)%7;
	  if(xingqi==5){
	     printf("8\n");
	  }xingqi=(256%7+w-1)%7;
	  if(xingqi==5){
	     printf("9\n");
	  }xingqi=(286%7+w-1)%7;
	  if(xingqi==5){
	     printf("10\n");
	  }xingqi=(317%7+w-1)%7;
	  if(xingqi==5){
	     printf("11\n");
	  }xingqi=(347%7+w-1)%7;
	  if(xingqi==5){
	     printf("12\n");
	  }
	  
	   
	  
     return 0;
}
